; Function Attrs: nofree norecurse nosync nounwind memory(argmem: readwrite) uwtable
define internal void @blend_hardlight_14bit(ptr noundef readonly captures(none) %0, i64 noundef %1, ptr noundef readonly captures(none) %2, i64 noundef %3, ptr noundef writeonly captures(none) %4, i64 noundef %5, i64 noundef %6, i64 noundef %7, ptr noundef readonly captures(none) %8, ptr readnone captures(none) %9) #6 {
  %11 = getelementptr inbounds nuw i8, ptr %8, i64 8
  %12 = load double, ptr %11, align 8, !tbaa !70
  %13 = fptrunc nsz double %12 to float
  %14 = lshr i64 %5, 1
  %15 = lshr i64 %1, 1
  %16 = lshr i64 %3, 1
  %17 = icmp sgt i64 %7, 0
  %18 = icmp sgt i64 %6, 0
  %or.cond = and i1 %17, %18
  br i1 %or.cond, label %.preheader.us, label %._crit_edge47

.preheader.us:                                    ; preds = %10, %._crit_edge.us
  %indvars.iv51 = phi i64 [ %indvars.iv.next52, %._crit_edge.us ], [ 0, %10 ]
  %.03645.us = phi ptr [ %44, %._crit_edge.us ], [ %4, %10 ]
  %.03744.us = phi ptr [ %46, %._crit_edge.us ], [ %2, %10 ]
  %.03843.us = phi ptr [ %45, %._crit_edge.us ], [ %0, %10 ]
  br label %19

19:                                               ; preds = %.preheader.us, %37
  %indvars.iv = phi i64 [ 0, %.preheader.us ], [ %indvars.iv.next, %37 ]
  %20 = getelementptr inbounds nuw i16, ptr %.03843.us, i64 %indvars.iv
  %21 = load i16, ptr %20, align 2, !tbaa !85
  %22 = zext i16 %21 to i32
  %23 = uitofp i16 %21 to float
  %24 = getelementptr inbounds nuw i16, ptr %.03744.us, i64 %indvars.iv
  %25 = load i16, ptr %24, align 2, !tbaa !85
  %26 = zext i16 %25 to i32
  %27 = icmp ult i16 %25, 8192
  br i1 %27, label %33, label %28

28:                                               ; preds = %19
  %29 = sub nsw i32 16383, %26
  %30 = sub nsw i32 16383, %22
  %31 = mul nsw i32 %29, %30
  %.neg.us = sdiv i32 %31, -16383
  %.neg41.us = shl nsw i32 %.neg.us, 1
  %32 = add nsw i32 %.neg41.us, 16383
  br label %37

33:                                               ; preds = %19
  %34 = mul nuw nsw i32 %26, %22
  %35 = udiv i32 %34, 16383
  %36 = shl nuw nsw i32 %35, 1
  br label %37

37:                                               ; preds = %33, %28
  %38 = phi i32 [ %36, %33 ], [ %32, %28 ]
  %39 = sub nsw i32 %38, %22
  %40 = sitofp i32 %39 to float
  %41 = tail call nsz float @llvm.fmuladd.f32(float %40, float %13, float %23)
  %42 = fptoui float %41 to i16
  %43 = getelementptr inbounds nuw i16, ptr %.03645.us, i64 %indvars.iv
  store i16 %42, ptr %43, align 2, !tbaa !85
  %indvars.iv.next = add nuw nsw i64 %indvars.iv, 1
  %exitcond.not = icmp eq i64 %indvars.iv.next, %6
  br i1 %exitcond.not, label %._crit_edge.us, label %19, !llvm.loop !436

._crit_edge.us:                                   ; preds = %37
  %44 = getelementptr inbounds nuw i16, ptr %.03645.us, i64 %14
  %45 = getelementptr inbounds nuw i16, ptr %.03843.us, i64 %15
  %46 = getelementptr inbounds nuw i16, ptr %.03744.us, i64 %16
  %indvars.iv.next52 = add nuw nsw i64 %indvars.iv51, 1
  %exitcond54.not = icmp eq i64 %indvars.iv.next52, %7
  br i1 %exitcond54.not, label %._crit_edge47, label %.preheader.us, !llvm.loop !437

._crit_edge47:                                    ; preds = %._crit_edge.us, %10
  ret void
}